; Function Attrs: nounwind uwtable
define dso_local noundef i64 @json_in(ptr noundef captures(none) %0) local_unnamed_addr #0 {
  %2 = alloca %struct.JsonLexContext, align 8
  %3 = getelementptr inbounds nuw i8, ptr %0, i64 32
  %4 = load i64, ptr %3, align 8
  %5 = inttoptr i64 %4 to ptr
  %6 = tail call ptr @cstring_to_text(ptr noundef %5) #10
  call void @llvm.lifetime.start.p0(i64 120, ptr nonnull %2) #10
  %7 = call ptr @makeJsonLexContext(ptr noundef nonnull %2, ptr noundef %6, i1 noundef zeroext false) #10
  %8 = getelementptr inbounds nuw i8, ptr %0, i64 8
  %9 = load ptr, ptr %8, align 8
  %10 = call zeroext i1 @pg_parse_json_or_errsave(ptr noundef nonnull %2, ptr noundef nonnull @nullSemAction, ptr noundef %9) #10
  br i1 %10, label %13, label %11

11:                                               ; preds = %1
  %12 = getelementptr inbounds nuw i8, ptr %0, i64 28
  store i8 1, ptr %12, align 4
  br label %15

13:                                               ; preds = %1
  %14 = ptrtoint ptr %6 to i64
  br label %15

15:                                               ; preds = %13, %11
  %.0 = phi i64 [ %14, %13 ], [ 0, %11 ]
  call void @llvm.lifetime.end.p0(i64 120, ptr nonnull %2) #10
  ret i64 %.0
}